target datalayout = "e-m:e-p270:32:32-p271:32:32-p272:64:64-i64:64-i128:128-f80:128-n8:16:32:64-S128"
target triple = "x86_64-pc-linux-gnu"

%struct.OSSL_TIME = type { i64 }
%struct.quic_reactor_st = type { %struct.bio_poll_descriptor_st, %struct.bio_poll_descriptor_st, %struct.OSSL_TIME, ptr, ptr, ptr, %struct.rio_notifier_st, ptr, i64, i8 }
%struct.bio_poll_descriptor_st = type { i32, %union.anon }
%union.anon = type { ptr }
%struct.rio_notifier_st = type { i32, i32 }

; Function Attrs: nounwind uwtable
define void @ossl_quic_reactor_leave_blocking_section(ptr noundef %0) #0 {
  %2 = alloca ptr, align 8
  store ptr %0, ptr %2, align 8, !tbaa !3
  %3 = load ptr, ptr %2, align 8, !tbaa !3
  %4 = getelementptr inbounds nuw %struct.quic_reactor_st, ptr %3, i32 0, i32 8
  %5 = load i64, ptr %4, align 8, !tbaa !25
  %6 = add i64 %5, -1
  store i64 %6, ptr %4, align 8, !tbaa !25
  %7 = load ptr, ptr %2, align 8, !tbaa !3
  %8 = getelementptr inbounds nuw %struct.quic_reactor_st, ptr %7, i32 0, i32 9
  %9 = load i8, ptr %8, align 8
  %10 = lshr i8 %9, 4
  %11 = and i8 %10, 1
  %12 = zext i8 %11 to i32
  %13 = icmp ne i32 %12, 0
  br i1 %13, label %14, label %57

14:                                               ; preds = %1
  %15 = load ptr, ptr %2, align 8, !tbaa !3
  %16 = getelementptr inbounds nuw %struct.quic_reactor_st, ptr %15, i32 0, i32 9
  %17 = load i8, ptr %16, align 8
  %18 = lshr i8 %17, 5
  %19 = and i8 %18, 1
  %20 = zext i8 %19 to i32
  %21 = icmp ne i32 %20, 0
  br i1 %21, label %22, label %57

22:                                               ; preds = %14
  %23 = load ptr, ptr %2, align 8, !tbaa !3
  %24 = getelementptr inbounds nuw %struct.quic_reactor_st, ptr %23, i32 0, i32 8
  %25 = load i64, ptr %24, align 8, !tbaa !25
  %26 = icmp eq i64 %25, 0
  br i1 %26, label %27, label %39

27:                                               ; preds = %22
  %28 = load ptr, ptr %2, align 8, !tbaa !3
  %29 = getelementptr inbounds nuw %struct.quic_reactor_st, ptr %28, i32 0, i32 6
  %30 = call i32 @ossl_rio_notifier_unsignal(ptr noundef %29)
  %31 = load ptr, ptr %2, align 8, !tbaa !3
  %32 = getelementptr inbounds nuw %struct.quic_reactor_st, ptr %31, i32 0, i32 9
  %33 = load i8, ptr %32, align 8
  %34 = and i8 %33, -33
  %35 = or i8 %34, 0
  store i8 %35, ptr %32, align 8
  %36 = load ptr, ptr %2, align 8, !tbaa !3
  %37 = getelementptr inbounds nuw %struct.quic_reactor_st, ptr %36, i32 0, i32 7
  %38 = load ptr, ptr %37, align 8, !tbaa !26
  call void @ossl_crypto_condvar_broadcast(ptr noundef %38)
  br label %56

39:                                               ; preds = %22
  br label %40

40:                                               ; preds = %48, %39
  %41 = load ptr, ptr %2, align 8, !tbaa !3
  %42 = getelementptr inbounds nuw %struct.quic_reactor_st, ptr %41, i32 0, i32 9
  %43 = load i8, ptr %42, align 8
  %44 = lshr i8 %43, 5
  %45 = and i8 %44, 1
  %46 = zext i8 %45 to i32
  %47 = icmp ne i32 %46, 0
  br i1 %47, label %48, label %55

48:                                               ; preds = %40
  %49 = load ptr, ptr %2, align 8, !tbaa !3
  %50 = getelementptr inbounds nuw %struct.quic_reactor_st, ptr %49, i32 0, i32 7
  %51 = load ptr, ptr %50, align 8, !tbaa !26
  %52 = load ptr, ptr %2, align 8, !tbaa !3
  %53 = getelementptr inbounds nuw %struct.quic_reactor_st, ptr %52, i32 0, i32 5
  %54 = load ptr, ptr %53, align 8, !tbaa !24
  call void @ossl_crypto_condvar_wait(ptr noundef %51, ptr noundef %54)
  br label %40, !llvm.loop !42

55:                                               ; preds = %40
  br label %56

56:                                               ; preds = %55, %27
  br label %57

57:                                               ; preds = %56, %14, %1
  ret void
}