; Function Attrs: nounwind uwtable
define void @ossl_quic_reactor_leave_blocking_section(ptr noundef %0) local_unnamed_addr #0 {
  %2 = getelementptr inbounds nuw i8, ptr %0, i64 80
  %3 = load i64, ptr %2, align 8, !tbaa !20
  %4 = add i64 %3, -1
  store i64 %4, ptr %2, align 8, !tbaa !20
  %5 = getelementptr inbounds nuw i8, ptr %0, i64 88
  %6 = load i8, ptr %5, align 8
  %7 = and i8 %6, 48
  %or.cond.not = icmp eq i8 %7, 48
  br i1 %or.cond.not, label %8, label %.loopexit

8:                                                ; preds = %1
  %9 = icmp eq i64 %4, 0
  br i1 %9, label %12, label %.lr.ph

.lr.ph:                                           ; preds = %8
  %10 = getelementptr inbounds nuw i8, ptr %0, i64 72
  %11 = getelementptr inbounds nuw i8, ptr %0, i64 56
  br label %19

12:                                               ; preds = %8
  %13 = getelementptr inbounds nuw i8, ptr %0, i64 64
  %14 = tail call i32 @ossl_rio_notifier_unsignal(ptr noundef nonnull %13) #10
  %15 = load i8, ptr %5, align 8
  %16 = and i8 %15, -33
  store i8 %16, ptr %5, align 8
  %17 = getelementptr inbounds nuw i8, ptr %0, i64 72
  %18 = load ptr, ptr %17, align 8, !tbaa !21
  tail call void @ossl_crypto_condvar_broadcast(ptr noundef %18) #10
  br label %.loopexit

19:                                               ; preds = %.lr.ph, %19
  %20 = load ptr, ptr %10, align 8, !tbaa !21
  %21 = load ptr, ptr %11, align 8, !tbaa !19
  tail call void @ossl_crypto_condvar_wait(ptr noundef %20, ptr noundef %21) #10
  %22 = load i8, ptr %5, align 8
  %23 = and i8 %22, 32
  %.not11 = icmp eq i8 %23, 0
  br i1 %.not11, label %.loopexit, label %19, !llvm.loop !39

.loopexit:                                        ; preds = %19, %12, %1
  ret void
}